; ModuleID = '38/1267.c'
source_filename = "38/1267.c"
target datalayout = "e-m:e-p270:32:32-p271:32:32-p272:64:64-i64:64-f80:128-n8:16:32:64-S128"
target triple = "x86_64-pc-linux-gnu"

@.str = private unnamed_addr constant [3 x i8] c"%d\00", align 1
@.str.1 = private unnamed_addr constant [4 x i8] c"%lf\00", align 1
@.str.2 = private unnamed_addr constant [6 x i8] c"%.5f\0A\00", align 1

; Function Attrs: noinline nounwind uwtable
define dso_local i32 @main(i32 %0, i8** %1) #0 {
  %3 = alloca i32, align 4
  %4 = alloca i32, align 4
  %5 = alloca i8**, align 8
  %6 = alloca i32, align 4
  %7 = alloca i32, align 4
  %8 = alloca i32, align 4
  %9 = alloca i32, align 4
  %10 = alloca [100 x double], align 16
  %11 = alloca double, align 8
  %12 = alloca double, align 8
  store i32 0, i32* %3, align 4
  store i32 %0, i32* %4, align 4
  store i8** %1, i8*** %5, align 8
  store double 0.000000e+00, double* %11, align 8
  store double 0.000000e+00, double* %12, align 8
  %13 = call i32 (i8*, ...) @__isoc99_scanf(i8* getelementptr inbounds ([3 x i8], [3 x i8]* @.str, i64 0, i64 0), i32* %6)
  store i32 0, i32* %8, align 4
  br label %14

14:                                               ; preds = %84, %2
  %15 = load i32, i32* %8, align 4
  %16 = load i32, i32* %6, align 4
  %17 = icmp slt i32 %15, %16
  br i1 %17, label %18, label %87

18:                                               ; preds = %14
  %19 = call i32 (i8*, ...) @__isoc99_scanf(i8* getelementptr inbounds ([3 x i8], [3 x i8]* @.str, i64 0, i64 0), i32* %7)
  store i32 0, i32* %9, align 4
  br label %20

20:                                               ; preds = %29, %18
  %21 = load i32, i32* %9, align 4
  %22 = load i32, i32* %7, align 4
  %23 = icmp slt i32 %21, %22
  br i1 %23, label %24, label %32

24:                                               ; preds = %20
  %25 = load i32, i32* %9, align 4
  %26 = sext i32 %25 to i64
  %27 = getelementptr inbounds [100 x double], [100 x double]* %10, i64 0, i64 %26
  %28 = call i32 (i8*, ...) @__isoc99_scanf(i8* getelementptr inbounds ([4 x i8], [4 x i8]* @.str.1, i64 0, i64 0), double* %27)
  br label %29

29:                                               ; preds = %24
  %30 = load i32, i32* %9, align 4
  %31 = add nsw i32 %30, 1
  store i32 %31, i32* %9, align 4
  br label %20

32:                                               ; preds = %20
  store i32 0, i32* %9, align 4
  br label %33

33:                                               ; preds = %44, %32
  %34 = load i32, i32* %9, align 4
  %35 = load i32, i32* %7, align 4
  %36 = icmp slt i32 %34, %35
  br i1 %36, label %37, label %47

37:                                               ; preds = %33
  %38 = load i32, i32* %9, align 4
  %39 = sext i32 %38 to i64
  %40 = getelementptr inbounds [100 x double], [100 x double]* %10, i64 0, i64 %39
  %41 = load double, double* %40, align 8
  %42 = load double, double* %11, align 8
  %43 = fadd double %42, %41
  store double %43, double* %11, align 8
  br label %44

44:                                               ; preds = %37
  %45 = load i32, i32* %9, align 4
  %46 = add nsw i32 %45, 1
  store i32 %46, i32* %9, align 4
  br label %33

47:                                               ; preds = %33
  %48 = load i32, i32* %7, align 4
  %49 = sitofp i32 %48 to double
  %50 = load double, double* %11, align 8
  %51 = fdiv double %50, %49
  store double %51, double* %11, align 8
  store i32 0, i32* %9, align 4
  br label %52

52:                                               ; preds = %72, %47
  %53 = load i32, i32* %9, align 4
  %54 = load i32, i32* %7, align 4
  %55 = icmp slt i32 %53, %54
  br i1 %55, label %56, label %75

56:                                               ; preds = %52
  %57 = load i32, i32* %9, align 4
  %58 = sext i32 %57 to i64
  %59 = getelementptr inbounds [100 x double], [100 x double]* %10, i64 0, i64 %58
  %60 = load double, double* %59, align 8
  %61 = load double, double* %11, align 8
  %62 = fsub double %60, %61
  %63 = load i32, i32* %9, align 4
  %64 = sext i32 %63 to i64
  %65 = getelementptr inbounds [100 x double], [100 x double]* %10, i64 0, i64 %64
  %66 = load double, double* %65, align 8
  %67 = load double, double* %11, align 8
  %68 = fsub double %66, %67
  %69 = fmul double %62, %68
  %70 = load double, double* %12, align 8
  %71 = fadd double %70, %69
  store double %71, double* %12, align 8
  br label %72

72:                                               ; preds = %56
  %73 = load i32, i32* %9, align 4
  %74 = add nsw i32 %73, 1
  store i32 %74, i32* %9, align 4
  br label %52

75:                                               ; preds = %52
  %76 = load i32, i32* %7, align 4
  %77 = sitofp i32 %76 to double
  %78 = load double, double* %12, align 8
  %79 = fdiv double %78, %77
  store double %79, double* %12, align 8
  %80 = load double, double* %12, align 8
  %81 = call double @pow(double %80, double 5.000000e-01) #3
  store double %81, double* %12, align 8
  %82 = load double, double* %12, align 8
  %83 = call i32 (i8*, ...) @printf(i8* getelementptr inbounds ([6 x i8], [6 x i8]* @.str.2, i64 0, i64 0), double %82)
  store double 0.000000e+00, double* %11, align 8
  store double 0.000000e+00, double* %12, align 8
  br label %84

84:                                               ; preds = %75
  %85 = load i32, i32* %8, align 4
  %86 = add nsw i32 %85, 1
  store i32 %86, i32* %8, align 4
  br label %14

87:                                               ; preds = %14
  ret i32 0
}

declare dso_local i32 @__isoc99_scanf(i8*, ...) #1

; Function Attrs: nounwind
declare dso_local double @pow(double, double) #2

declare dso_local i32 @printf(i8*, ...) #1


!llvm.module.flags = !{!0}
!llvm.ident = !{!1}

!0 = !{i32 1, !"wchar_size", i32 4}
!1 = !{!"clang version 10.0.0-4ubuntu1 "}
